; ModuleID = 'source-C-CXX/55/642.c'
source_filename = "source-C-CXX/55/642.c"
target datalayout = "e-m:e-p270:32:32-p271:32:32-p272:64:64-i64:64-f80:128-n8:16:32:64-S128"
target triple = "x86_64-pc-linux-gnu"

@.str = private unnamed_addr constant [3 x i8] c"%d\00", align 1

; Function Attrs: nofree nounwind sspstrong uwtable
define dso_local void @main() local_unnamed_addr #0 {
  %1 = alloca i32, align 4
  %2 = bitcast i32* %1 to i8*
  call void @llvm.lifetime.start.p0i8(i64 4, i8* nonnull %2) #3
  %3 = call i32 (i8*, ...) @__isoc99_scanf(i8* getelementptr inbounds ([3 x i8], [3 x i8]* @.str, i64 0, i64 0), i32* nonnull %1)
  %4 = load i32, i32* %1, align 4, !tbaa !5
  %5 = udiv i32 %4, 10000
  %6 = mul i32 %5, -10000
  %7 = add i32 %6, %4
  %8 = udiv i32 %7, 1000
  %9 = mul i32 %8, -1000
  %10 = add i32 %9, %7
  %11 = udiv i32 %10, 100
  %12 = mul nuw i32 %11, 100
  %13 = urem i32 %10, 100
  %14 = udiv i32 %13, 10
  %15 = mul nuw i32 %14, 10
  %16 = urem i32 %13, 10
  %17 = icmp ult i32 %4, 10000
  br i1 %17, label %26, label %18

18:                                               ; preds = %0
  %19 = mul i32 %16, 10000
  %20 = mul i32 %14, 1000
  %21 = mul nuw nsw i32 %8, 10
  %22 = add nuw nsw i32 %21, %5
  %23 = add i32 %22, %12
  %24 = add i32 %23, %20
  %25 = add i32 %24, %19
  br label %41

26:                                               ; preds = %0
  %27 = icmp ult i32 %7, 1000
  br i1 %27, label %35, label %28

28:                                               ; preds = %26
  %29 = mul i32 %16, 1000
  %30 = mul i32 %14, 100
  %31 = mul nuw nsw i32 %11, 10
  %32 = add nuw nsw i32 %31, %8
  %33 = add i32 %32, %30
  %34 = add i32 %33, %29
  br label %41

35:                                               ; preds = %26
  %36 = icmp ult i32 %10, 100
  br i1 %36, label %41, label %37

37:                                               ; preds = %35
  %38 = mul i32 %16, 100
  %39 = add i32 %15, %11
  %40 = add i32 %39, %38
  br label %41

41:                                               ; preds = %28, %37, %35, %18
  %42 = phi i32 [ %25, %18 ], [ %34, %28 ], [ %40, %37 ], [ undef, %35 ]
  %43 = call i32 (i8*, ...) @printf(i8* nonnull dereferenceable(1) getelementptr inbounds ([3 x i8], [3 x i8]* @.str, i64 0, i64 0), i32 %42)
  call void @llvm.lifetime.end.p0i8(i64 4, i8* nonnull %2) #3
  ret void
}

; Function Attrs: argmemonly mustprogress nofree nosync nounwind willreturn
declare void @llvm.lifetime.start.p0i8(i64 immarg, i8* nocapture) #1

; Function Attrs: nofree nounwind
declare noundef i32 @__isoc99_scanf(i8* nocapture noundef readonly, ...) local_unnamed_addr #2

; Function Attrs: nofree nounwind
declare noundef i32 @printf(i8* nocapture noundef readonly, ...) local_unnamed_addr #2

; Function Attrs: argmemonly mustprogress nofree nosync nounwind willreturn
declare void @llvm.lifetime.end.p0i8(i64 immarg, i8* nocapture) #1


!llvm.module.flags = !{!0, !1, !2, !3}
!llvm.ident = !{!4}

!0 = !{i32 1, !"wchar_size", i32 4}
!1 = !{i32 7, !"PIC Level", i32 2}
!2 = !{i32 7, !"PIE Level", i32 2}
!3 = !{i32 7, !"uwtable", i32 1}
!4 = !{!"clang version 13.0.0"}
!5 = !{!6, !6, i64 0}
!6 = !{!"int", !7, i64 0}
!7 = !{!"omnipotent char", !8, i64 0}
!8 = !{!"Simple C/C++ TBAA"}
